target datalayout = "e-m:e-p270:32:32-p271:32:32-p272:64:64-i64:64-i128:128-f80:128-n8:16:32:64-S128"
target triple = "x86_64-pc-linux-gnu"

%struct.ran_function_available_dissectors_t = type { i32, [8 x ptr] }
%struct.expert_field = type { i32, i32 }
%struct.ran_function_pointers_t = type { ptr, ptr, ptr, ptr, ptr, ptr, ptr, ptr, ptr, ptr, ptr, ptr }
%struct._packet_info = type { ptr, ptr, i32, i32, %struct.nstime_t, %struct.nstime_t, %struct.nstime_t, i8, ptr, ptr, ptr, ptr, %struct._address, %struct._address, %struct._address, %struct._address, %struct._address, %struct._address, i32, ptr, i8, [3 x i8], %struct.anon, i32, i32, i32, i32, ptr, i8, ptr, ptr, i16, i16, i32, i32, i16, i32, i32, ptr, ptr, ptr, i8, i8, i16, i16, i16, i32, i16, i16, ptr, ptr, ptr, ptr, ptr, i32, i32 }
%struct.nstime_t = type { i64, i32 }
%struct._address = type { i32, i32, ptr, ptr }
%struct.anon = type { i8, [3 x i8] }
%struct._frame_data = type <{ i32, i32, i32, i32, i32, [4 x i8], i64, ptr, ptr, ptr, i8, i16, [5 x i8], %struct.nstime_t, %struct.nstime_t, i32, i32 }>
%struct.ran_function_dissector_t = type { ptr, [1001 x i8], i8, i8, %struct.ran_function_pointers_t }
%struct._asn1_ctx_t = type { i32, i32, i8, ptr, ptr, ptr, ptr, ptr, %struct.anon.1, %struct.anon.4, %struct.anon.5, ptr }
%struct.anon.1 = type { i32, i8, i8, i8, ptr, ptr, i32, i32, ptr, ptr, ptr, %union.anon }
%union.anon = type { %struct.anon.2 }
%struct.anon.2 = type { ptr }
%struct.anon.4 = type { ptr, ptr, ptr }
%struct.anon.5 = type { i32, i8, ptr, i32, i32, ptr, ptr, ptr, %union.anon.6 }
%union.anon.6 = type { %struct.anon.7 }
%struct.anon.7 = type { ptr }

@g_ran_functions_available_dissectors = internal global [4 x %struct.ran_function_available_dissectors_t] zeroinitializer, align 16
@g_ran_function_name_table = internal global [4 x ptr] [ptr @.str.45, ptr @.str.46, ptr @.str.47, ptr @.str.48], align 16
@.str.48 = private unnamed_addr constant [2 x i8] c"{\00", align 1
@hf_e2ap_ran_function_name_not_recognised = internal global i32 0, align 4
@ei_e2ap_ran_function_names_no_match = internal global %struct.expert_field zeroinitializer, align 4
@.str.1878 = private unnamed_addr constant [49 x i8] c"ShortName does not match any known Service Model\00", align 1

; Function Attrs: null_pointer_is_valid sspstrong uwtable
define internal i32 @dissect_e2ap_RANfunctionDefinition(ptr noundef %0, i32 noundef %1, ptr noundef %2, ptr noundef %3, i32 noundef %4) #2 {
  %6 = alloca ptr, align 8
  %7 = alloca i32, align 4
  %8 = alloca ptr, align 8
  %9 = alloca ptr, align 8
  %10 = alloca i32, align 4
  %11 = alloca ptr, align 8
  %12 = alloca i8, align 1
  %13 = alloca i32, align 4
  %14 = alloca i32, align 4
  %15 = alloca i32, align 4
  %16 = alloca i32, align 4
  %17 = alloca i32, align 4
  %18 = alloca i32, align 4
  %19 = alloca i32, align 4
  %20 = alloca i32, align 4
  %21 = alloca i32, align 4
  %22 = alloca ptr, align 8
  store ptr %0, ptr %6, align 8
  store i32 %1, ptr %7, align 4
  store ptr %2, ptr %8, align 8
  store ptr %3, ptr %9, align 8
  store i32 %4, ptr %10, align 4
  call void @llvm.lifetime.start.p0(i64 8, ptr %11) #10
  %23 = load ptr, ptr %6, align 8
  %24 = load i32, ptr %7, align 4
  %25 = load ptr, ptr %8, align 8
  %26 = load ptr, ptr %9, align 8
  %27 = load i32, ptr %10, align 4
  %28 = call i32 @dissect_per_octet_string(ptr noundef %23, i32 noundef %24, ptr noundef %25, ptr noundef %26, i32 noundef %27, i32 noundef -1, i32 noundef -1, i1 noundef zeroext false, ptr noundef %11)
  store i32 %28, ptr %7, align 4
  call void @llvm.lifetime.start.p0(i64 1, ptr %12) #10
  store i8 0, ptr %12, align 1
  call void @llvm.lifetime.start.p0(i64 4, ptr %13) #10
  call void @llvm.lifetime.start.p0(i64 4, ptr %14) #10
  store i32 0, ptr %13, align 4
  br label %29

29:                                               ; preds = %134, %5
  %30 = load i32, ptr %13, align 4
  %31 = icmp slt i32 %30, 4
  br i1 %31, label %32, label %36

32:                                               ; preds = %29
  %33 = load i8, ptr %12, align 1, !range !10, !noundef !11
  %34 = trunc i8 %33 to i1
  %35 = xor i1 %34, true
  br label %36

36:                                               ; preds = %32, %29
  %37 = phi i1 [ false, %29 ], [ %35, %32 ]
  br i1 %37, label %38, label %137

38:                                               ; preds = %36
  call void @llvm.lifetime.start.p0(i64 4, ptr %15) #10
  %39 = load ptr, ptr %11, align 8
  %40 = call i32 @tvb_captured_length(ptr noundef %39)
  store i32 %40, ptr %15, align 4
  call void @llvm.lifetime.start.p0(i64 4, ptr %16) #10
  %41 = load i32, ptr %13, align 4
  %42 = sext i32 %41 to i64
  %43 = getelementptr [4 x ptr], ptr @g_ran_function_name_table, i64 0, i64 %42
  %44 = load ptr, ptr %43, align 8
  %45 = call i64 @strlen(ptr noundef %44) #11
  %46 = trunc i64 %45 to i32
  store i32 %46, ptr %16, align 4
  call void @llvm.lifetime.start.p0(i64 4, ptr %17) #10
  store i32 0, ptr %17, align 4
  br label %47

47:                                               ; preds = %129, %38
  %48 = load i32, ptr %17, align 4
  %49 = icmp slt i32 %48, 30
  br i1 %49, label %50, label %57

50:                                               ; preds = %47
  %51 = load i32, ptr %17, align 4
  %52 = load i32, ptr %16, align 4
  %53 = add i32 %51, %52
  %54 = add i32 %53, 1
  %55 = load i32, ptr %15, align 4
  %56 = icmp ult i32 %54, %55
  br label %57

57:                                               ; preds = %50, %47
  %58 = phi i1 [ false, %47 ], [ %56, %50 ]
  br i1 %58, label %60, label %59

59:                                               ; preds = %57
  store i32 5, ptr %18, align 4
  br label %132

60:                                               ; preds = %57
  %61 = load ptr, ptr %11, align 8
  %62 = load i32, ptr %17, align 4
  %63 = load i32, ptr %13, align 4
  %64 = sext i32 %63 to i64
  %65 = getelementptr [4 x ptr], ptr @g_ran_function_name_table, i64 0, i64 %64
  %66 = load ptr, ptr %65, align 8
  %67 = load i32, ptr %16, align 4
  %68 = zext i32 %67 to i64
  %69 = call i32 @tvb_strneql(ptr noundef %61, i32 noundef %62, ptr noundef %66, i64 noundef %68)
  %70 = icmp eq i32 %69, 0
  br i1 %70, label %71, label %128

71:                                               ; preds = %60
  %72 = load i32, ptr %13, align 4
  %73 = sext i32 %72 to i64
  %74 = getelementptr [4 x %struct.ran_function_available_dissectors_t], ptr @g_ran_functions_available_dissectors, i64 0, i64 %73
  %75 = getelementptr inbounds nuw %struct.ran_function_available_dissectors_t, ptr %74, i32 0, i32 0
  %76 = load i32, ptr %75, align 8
  %77 = icmp ne i32 %76, 0
  br i1 %77, label %78, label %127

78:                                               ; preds = %71
  call void @llvm.lifetime.start.p0(i64 4, ptr %19) #10
  store i32 0, ptr %19, align 4
  call void @llvm.lifetime.start.p0(i64 4, ptr %20) #10
  store i32 0, ptr %20, align 4
  call void @llvm.lifetime.start.p0(i64 4, ptr %21) #10
  store i32 0, ptr %21, align 4
  br label %79

79:                                               ; preds = %105, %78
  %80 = load i32, ptr %21, align 4
  %81 = load i32, ptr %13, align 4
  %82 = sext i32 %81 to i64
  %83 = getelementptr [4 x %struct.ran_function_available_dissectors_t], ptr @g_ran_functions_available_dissectors, i64 0, i64 %82
  %84 = getelementptr inbounds nuw %struct.ran_function_available_dissectors_t, ptr %83, i32 0, i32 0
  %85 = load i32, ptr %84, align 8
  %86 = icmp ult i32 %80, %85
  br i1 %86, label %88, label %87

87:                                               ; preds = %79
  store i32 8, ptr %18, align 4
  call void @llvm.lifetime.end.p0(i64 4, ptr %21) #10
  br label %108

88:                                               ; preds = %79
  %89 = load i32, ptr %13, align 4
  %90 = sext i32 %89 to i64
  %91 = getelementptr [4 x %struct.ran_function_available_dissectors_t], ptr @g_ran_functions_available_dissectors, i64 0, i64 %90
  %92 = getelementptr inbounds nuw %struct.ran_function_available_dissectors_t, ptr %91, i32 0, i32 1
  %93 = load i32, ptr %21, align 4
  %94 = zext i32 %93 to i64
  %95 = getelementptr [8 x ptr], ptr %92, i64 0, i64 %94
  %96 = load ptr, ptr %95, align 8
  %97 = getelementptr inbounds nuw %struct.ran_function_dissector_t, ptr %96, i32 0, i32 2
  %98 = load i8, ptr %97, align 1
  %99 = zext i8 %98 to i32
  %100 = load i32, ptr %20, align 4
  %101 = icmp ugt i32 %99, %100
  br i1 %101, label %102, label %104

102:                                              ; preds = %88
  %103 = load i32, ptr %21, align 4
  store i32 %103, ptr %19, align 4
  br label %104

104:                                              ; preds = %102, %88
  br label %105

105:                                              ; preds = %104
  %106 = load i32, ptr %21, align 4
  %107 = add i32 %106, 1
  store i32 %107, ptr %21, align 4
  br label %79, !llvm.loop !18

108:                                              ; preds = %87
  %109 = load i32, ptr %13, align 4
  %110 = sext i32 %109 to i64
  %111 = getelementptr [4 x %struct.ran_function_available_dissectors_t], ptr @g_ran_functions_available_dissectors, i64 0, i64 %110
  %112 = getelementptr inbounds nuw %struct.ran_function_available_dissectors_t, ptr %111, i32 0, i32 1
  %113 = load i32, ptr %19, align 4
  %114 = zext i32 %113 to i64
  %115 = getelementptr [8 x ptr], ptr %112, i64 0, i64 %114
  %116 = load ptr, ptr %115, align 8
  %117 = getelementptr inbounds nuw %struct.ran_function_dissector_t, ptr %116, i32 0, i32 4
  %118 = getelementptr inbounds nuw %struct.ran_function_pointers_t, ptr %117, i32 0, i32 0
  %119 = load ptr, ptr %118, align 8
  %120 = load ptr, ptr %11, align 8
  %121 = load ptr, ptr %8, align 8
  %122 = getelementptr inbounds nuw %struct._asn1_ctx_t, ptr %121, i32 0, i32 3
  %123 = load ptr, ptr %122, align 8
  %124 = load ptr, ptr %9, align 8
  %125 = call i32 %119(ptr noundef %120, ptr noundef %123, ptr noundef %124, ptr noundef null)
  store i8 1, ptr %12, align 1
  %126 = load i32, ptr %13, align 4
  store i32 %126, ptr %14, align 4
  store i32 5, ptr %18, align 4
  call void @llvm.lifetime.end.p0(i64 4, ptr %20) #10
  call void @llvm.lifetime.end.p0(i64 4, ptr %19) #10
  br label %132

127:                                              ; preds = %71
  br label %128

128:                                              ; preds = %127, %60
  br label %129

129:                                              ; preds = %128
  %130 = load i32, ptr %17, align 4
  %131 = add i32 %130, 1
  store i32 %131, ptr %17, align 4
  br label %47, !llvm.loop !19

132:                                              ; preds = %108, %59
  call void @llvm.lifetime.end.p0(i64 4, ptr %17) #10
  br label %133

133:                                              ; preds = %132
  call void @llvm.lifetime.end.p0(i64 4, ptr %16) #10
  call void @llvm.lifetime.end.p0(i64 4, ptr %15) #10
  br label %134

134:                                              ; preds = %133
  %135 = load i32, ptr %13, align 4
  %136 = add i32 %135, 1
  store i32 %136, ptr %13, align 4
  br label %29, !llvm.loop !20

137:                                              ; preds = %36
  %138 = load i8, ptr %12, align 1, !range !10, !noundef !11
  %139 = trunc i8 %138 to i1
  br i1 %139, label %140, label %162

140:                                              ; preds = %137
  %141 = load i32, ptr %14, align 4
  %142 = icmp eq i32 %141, 3
  br i1 %142, label %143, label %162

143:                                              ; preds = %140
  %144 = load ptr, ptr %8, align 8
  %145 = getelementptr inbounds nuw %struct._asn1_ctx_t, ptr %144, i32 0, i32 3
  %146 = load ptr, ptr %145, align 8
  %147 = getelementptr inbounds nuw %struct._packet_info, ptr %146, i32 0, i32 8
  %148 = load ptr, ptr %147, align 8
  %149 = getelementptr inbounds nuw %struct._frame_data, ptr %148, i32 0, i32 11
  %150 = load i16, ptr %149, align 1
  %151 = lshr i16 %150, 3
  %152 = and i16 %151, 1
  %153 = zext i16 %152 to i32
  %154 = icmp ne i32 %153, 0
  br i1 %154, label %161, label %155

155:                                              ; preds = %143
  %156 = load ptr, ptr %8, align 8
  %157 = getelementptr inbounds nuw %struct._asn1_ctx_t, ptr %156, i32 0, i32 3
  %158 = load ptr, ptr %157, align 8
  %159 = load ptr, ptr %9, align 8
  %160 = load ptr, ptr %11, align 8
  call void @e2ap_store_ran_function_mapping(ptr noundef %158, ptr noundef %159, ptr noundef %160, ptr noundef @.str.48)
  br label %161

161:                                              ; preds = %155, %143
  br label %162

162:                                              ; preds = %161, %140, %137
  %163 = load i8, ptr %12, align 1, !range !10, !noundef !11
  %164 = trunc i8 %163 to i1
  br i1 %164, label %175, label %165

165:                                              ; preds = %162
  call void @llvm.lifetime.start.p0(i64 8, ptr %22) #10
  %166 = load ptr, ptr %9, align 8
  %167 = load i32, ptr @hf_e2ap_ran_function_name_not_recognised, align 4
  %168 = load ptr, ptr %6, align 8
  %169 = call ptr @proto_tree_add_item(ptr noundef %166, i32 noundef %167, ptr noundef %168, i32 noundef 0, i32 noundef 0, i32 noundef 0)
  store ptr %169, ptr %22, align 8
  %170 = load ptr, ptr %8, align 8
  %171 = getelementptr inbounds nuw %struct._asn1_ctx_t, ptr %170, i32 0, i32 3
  %172 = load ptr, ptr %171, align 8
  %173 = load ptr, ptr %22, align 8
  %174 = call ptr (ptr, ptr, ptr, ptr, ...) @expert_add_info_format(ptr noundef %172, ptr noundef %173, ptr noundef @ei_e2ap_ran_function_names_no_match, ptr noundef @.str.1878)
  call void @llvm.lifetime.end.p0(i64 8, ptr %22) #10
  br label %175

175:                                              ; preds = %165, %162
  %176 = load i32, ptr %7, align 4
  store i32 1, ptr %18, align 4
  call void @llvm.lifetime.end.p0(i64 4, ptr %14) #10
  call void @llvm.lifetime.end.p0(i64 4, ptr %13) #10
  call void @llvm.lifetime.end.p0(i64 1, ptr %12) #10
  call void @llvm.lifetime.end.p0(i64 8, ptr %11) #10
  ret i32 %176
}