; Function Attrs: null_pointer_is_valid sspstrong uwtable
define internal i32 @dissect_e2ap_RANfunctionDefinition(ptr noundef %0, i32 noundef %1, ptr noundef %2, ptr noundef %3, i32 noundef %4) #2 {
  %6 = alloca ptr, align 8
  call void @llvm.lifetime.start.p0(i64 8, ptr nonnull %6) #12
  %7 = call i32 @dissect_per_octet_string(ptr noundef %0, i32 noundef %1, ptr noundef %2, ptr noundef %3, i32 noundef %4, i32 noundef -1, i32 noundef -1, i1 noundef zeroext false, ptr noundef nonnull %6)
  %8 = getelementptr inbounds nuw i8, ptr %2, i64 16
  br label %9

9:                                                ; preds = %5, %.critedge
  %indvars.iv62 = phi i64 [ 0, %5 ], [ %indvars.iv.next63, %.critedge ]
  %10 = load ptr, ptr %6, align 8
  %11 = call i32 @tvb_captured_length(ptr noundef %10)
  %12 = getelementptr [4 x ptr], ptr @g_ran_function_name_table, i64 0, i64 %indvars.iv62
  %13 = load ptr, ptr %12, align 8
  %14 = call i64 @strlen(ptr noundef %13) #11
  %15 = trunc i64 %14 to i32
  %16 = add i32 %15, 1
  %17 = and i64 %14, 4294967295
  %18 = getelementptr [4 x %struct.ran_function_available_dissectors_t], ptr @g_ran_functions_available_dissectors, i64 0, i64 %indvars.iv62
  br label %19

19:                                               ; preds = %9, %35
  %.04452 = phi i32 [ 0, %9 ], [ %36, %35 ]
  %20 = add nuw i32 %16, %.04452
  %21 = icmp ult i32 %20, %11
  br i1 %21, label %22, label %.critedge

22:                                               ; preds = %19
  %23 = load ptr, ptr %6, align 8
  %24 = call i32 @tvb_strneql(ptr noundef %23, i32 noundef %.04452, ptr noundef %13, i64 noundef %17)
  %25 = icmp eq i32 %24, 0
  br i1 %25, label %26, label %35

26:                                               ; preds = %22
  %27 = load i32, ptr %18, align 8
  %.not49 = icmp eq i32 %27, 0
  br i1 %.not49, label %35, label %.preheader

.preheader:                                       ; preds = %26
  %28 = getelementptr inbounds nuw i8, ptr %18, i64 8
  %wide.trip.count = zext i32 %27 to i64
  br label %29

29:                                               ; preds = %.preheader, %29
  %indvars.iv = phi i64 [ 0, %.preheader ], [ %indvars.iv.next, %29 ]
  %.04253 = phi i32 [ 0, %.preheader ], [ %spec.select, %29 ]
  %30 = getelementptr [8 x ptr], ptr %28, i64 0, i64 %indvars.iv
  %31 = load ptr, ptr %30, align 8
  %32 = getelementptr inbounds nuw i8, ptr %31, i64 1009
  %33 = load i8, ptr %32, align 1
  %.not50 = icmp eq i8 %33, 0
  %34 = trunc nuw i64 %indvars.iv to i32
  %spec.select = select i1 %.not50, i32 %.04253, i32 %34
  %indvars.iv.next = add nuw nsw i64 %indvars.iv, 1
  %exitcond61.not = icmp eq i64 %indvars.iv.next, %wide.trip.count
  br i1 %exitcond61.not, label %38, label %29, !llvm.loop !20

35:                                               ; preds = %22, %26
  %36 = add nuw nsw i32 %.04452, 1
  %exitcond.not = icmp eq i32 %36, 30
  br i1 %exitcond.not, label %.critedge, label %19, !llvm.loop !21

.critedge:                                        ; preds = %19, %35
  %indvars.iv.next63 = add nuw nsw i64 %indvars.iv62, 1
  %37 = icmp samesign ugt i64 %indvars.iv62, 2
  br i1 %37, label %57, label %9, !llvm.loop !22

38:                                               ; preds = %29
  %39 = zext i32 %spec.select to i64
  %40 = getelementptr [8 x ptr], ptr %28, i64 0, i64 %39
  %41 = load ptr, ptr %40, align 8
  %42 = getelementptr inbounds nuw i8, ptr %41, i64 1016
  %43 = load ptr, ptr %42, align 8
  %44 = load ptr, ptr %6, align 8
  %45 = load ptr, ptr %8, align 8
  %46 = call i32 %43(ptr noundef %44, ptr noundef %45, ptr noundef %3, ptr noundef null)
  %47 = icmp eq i64 %indvars.iv62, 3
  br i1 %47, label %48, label %.thread

48:                                               ; preds = %38
  %49 = load ptr, ptr %8, align 8
  %50 = getelementptr inbounds nuw i8, ptr %49, i64 80
  %51 = load ptr, ptr %50, align 8
  %52 = getelementptr inbounds nuw i8, ptr %51, i64 57
  %53 = load i16, ptr %52, align 1
  %54 = and i16 %53, 8
  %.not = icmp eq i16 %54, 0
  br i1 %.not, label %55, label %.thread

55:                                               ; preds = %48
  %56 = load ptr, ptr %6, align 8
  call void @e2ap_store_ran_function_mapping(ptr noundef %49, ptr noundef %3, ptr noundef %56, ptr noundef nonnull @.str.48)
  br label %.thread

57:                                               ; preds = %.critedge
  %58 = load i32, ptr @hf_e2ap_ran_function_name_not_recognised, align 4
  %59 = call ptr @proto_tree_add_item(ptr noundef %3, i32 noundef %58, ptr noundef %0, i32 noundef 0, i32 noundef 0, i32 noundef 0)
  %60 = load ptr, ptr %8, align 8
  %61 = call ptr (ptr, ptr, ptr, ptr, ...) @expert_add_info_format(ptr noundef %60, ptr noundef %59, ptr noundef nonnull @ei_e2ap_ran_function_names_no_match, ptr noundef nonnull @.str.1878)
  br label %.thread

.thread:                                          ; preds = %38, %55, %48, %57
  call void @llvm.lifetime.end.p0(i64 8, ptr nonnull %6) #12
  ret i32 %7
}